target datalayout = "e-m:e-p270:32:32-p271:32:32-p272:64:64-i64:64-i128:128-f80:128-n8:16:32:64-S128"
target triple = "x86_64-pc-linux-gnu"

%struct._ir_insn = type { %struct.anon, %union.anon.5 }
%struct.anon = type { %union.anon, %union.anon.4 }
%union.anon = type { i32 }
%union.anon.4 = type { i32 }
%union.anon.5 = type { %union._ir_val }
%union._ir_val = type { double }
%struct.anon.0 = type { %union.anon.1, %union.anon.3 }
%union.anon.1 = type { i16 }
%union.anon.3 = type { i16 }
%struct.anon.2 = type { i8, i8 }
%struct._ir_ctx = type { ptr, i32, i32, i32, i32, i32, i32, i32, i32, i32, i32, %struct._ir_insn, ptr, ptr, ptr, i32, i32, i32, ptr, ptr, ptr, ptr, ptr, i32, i32, i64, i32, i32, i32, i64, i32, i32, i32, i32, ptr, ptr, ptr, ptr, ptr, ptr, %union.anon.13, ptr, i32, i32, i32, i64, i32, i32, i32, ptr, ptr, ptr, ptr, %struct._ir_strtab, [61 x i32], [14 x i32] }
%union.anon.13 = type { ptr }
%struct._ir_strtab = type { ptr, i32, i32, i32, i32, ptr, i32, i32 }
%struct.anon.6 = type { i32, i32 }

; Function Attrs: nounwind uwtable
define internal void @ir_grow_top(ptr noundef %0) #0 {
  %2 = alloca ptr, align 8
  %3 = alloca ptr, align 8
  store ptr %0, ptr %2, align 8
  %4 = load ptr, ptr %2, align 8
  %5 = getelementptr inbounds %struct._ir_ctx, ptr %4, i32 0, i32 0
  %6 = load ptr, ptr %5, align 8
  %7 = load ptr, ptr %2, align 8
  %8 = getelementptr inbounds %struct._ir_ctx, ptr %7, i32 0, i32 4
  %9 = load i32, ptr %8, align 4
  %10 = sext i32 %9 to i64
  %11 = sub i64 0, %10
  %12 = getelementptr inbounds %struct._ir_insn, ptr %6, i64 %11
  store ptr %12, ptr %3, align 8
  %13 = load ptr, ptr %2, align 8
  %14 = getelementptr inbounds %struct._ir_ctx, ptr %13, i32 0, i32 2
  %15 = load i32, ptr %14, align 4
  %16 = icmp slt i32 %15, 4096
  br i1 %16, label %17, label %22

17:                                               ; preds = %1
  %18 = load ptr, ptr %2, align 8
  %19 = getelementptr inbounds %struct._ir_ctx, ptr %18, i32 0, i32 2
  %20 = load i32, ptr %19, align 4
  %21 = mul nsw i32 %20, 2
  store i32 %21, ptr %19, align 4
  br label %36

22:                                               ; preds = %1
  %23 = load ptr, ptr %2, align 8
  %24 = getelementptr inbounds %struct._ir_ctx, ptr %23, i32 0, i32 2
  %25 = load i32, ptr %24, align 4
  %26 = icmp slt i32 %25, 8192
  br i1 %26, label %27, label %30

27:                                               ; preds = %22
  %28 = load ptr, ptr %2, align 8
  %29 = getelementptr inbounds %struct._ir_ctx, ptr %28, i32 0, i32 2
  store i32 8192, ptr %29, align 4
  br label %35

30:                                               ; preds = %22
  %31 = load ptr, ptr %2, align 8
  %32 = getelementptr inbounds %struct._ir_ctx, ptr %31, i32 0, i32 2
  %33 = load i32, ptr %32, align 4
  %34 = add nsw i32 %33, 4096
  store i32 %34, ptr %32, align 4
  br label %35

35:                                               ; preds = %30, %27
  br label %36

36:                                               ; preds = %35, %17
  %37 = load ptr, ptr %3, align 8
  %38 = load ptr, ptr %2, align 8
  %39 = getelementptr inbounds %struct._ir_ctx, ptr %38, i32 0, i32 4
  %40 = load i32, ptr %39, align 4
  %41 = load ptr, ptr %2, align 8
  %42 = getelementptr inbounds %struct._ir_ctx, ptr %41, i32 0, i32 2
  %43 = load i32, ptr %42, align 4
  %44 = add nsw i32 %40, %43
  %45 = sext i32 %44 to i64
  %46 = mul i64 %45, 16
  %47 = call ptr @_erealloc(ptr noundef %37, i64 noundef %46) #14
  store ptr %47, ptr %3, align 8
  %48 = load ptr, ptr %3, align 8
  %49 = load ptr, ptr %2, align 8
  %50 = getelementptr inbounds %struct._ir_ctx, ptr %49, i32 0, i32 4
  %51 = load i32, ptr %50, align 4
  %52 = sext i32 %51 to i64
  %53 = getelementptr inbounds %struct._ir_insn, ptr %48, i64 %52
  %54 = load ptr, ptr %2, align 8
  %55 = getelementptr inbounds %struct._ir_ctx, ptr %54, i32 0, i32 0
  store ptr %53, ptr %55, align 8
  ret void
}

; Function Attrs: nounwind uwtable
define internal i32 @ir_next_insn(ptr noundef %0) #0 {
  %2 = alloca ptr, align 8
  %3 = alloca i32, align 4
  store ptr %0, ptr %2, align 8
  %4 = load ptr, ptr %2, align 8
  %5 = getelementptr inbounds %struct._ir_ctx, ptr %4, i32 0, i32 1
  %6 = load i32, ptr %5, align 8
  store i32 %6, ptr %3, align 4
  %7 = load i32, ptr %3, align 4
  %8 = load ptr, ptr %2, align 8
  %9 = getelementptr inbounds %struct._ir_ctx, ptr %8, i32 0, i32 2
  %10 = load i32, ptr %9, align 4
  %11 = icmp sge i32 %7, %10
  %12 = xor i1 %11, true
  %13 = xor i1 %12, true
  %14 = zext i1 %13 to i32
  %15 = sext i32 %14 to i64
  %16 = icmp ne i64 %15, 0
  br i1 %16, label %17, label %19

17:                                               ; preds = %1
  %18 = load ptr, ptr %2, align 8
  call void @ir_grow_top(ptr noundef %18)
  br label %19

19:                                               ; preds = %17, %1
  %20 = load i32, ptr %3, align 4
  %21 = add nsw i32 %20, 1
  %22 = load ptr, ptr %2, align 8
  %23 = getelementptr inbounds %struct._ir_ctx, ptr %22, i32 0, i32 1
  store i32 %21, ptr %23, align 8
  %24 = load i32, ptr %3, align 4
  ret i32 %24
}

; Function Attrs: nounwind uwtable
define hidden i32 @ir_emit(ptr noundef %0, i32 noundef %1, i32 noundef %2, i32 noundef %3, i32 noundef %4) #0 {
  %6 = alloca ptr, align 8
  %7 = alloca i32, align 4
  %8 = alloca i32, align 4
  %9 = alloca i32, align 4
  %10 = alloca i32, align 4
  %11 = alloca i32, align 4
  %12 = alloca ptr, align 8
  store ptr %0, ptr %6, align 8
  store i32 %1, ptr %7, align 4
  store i32 %2, ptr %8, align 4
  store i32 %3, ptr %9, align 4
  store i32 %4, ptr %10, align 4
  %13 = load ptr, ptr %6, align 8
  %14 = call i32 @ir_next_insn(ptr noundef %13)
  store i32 %14, ptr %11, align 4
  %15 = load ptr, ptr %6, align 8
  %16 = getelementptr inbounds %struct._ir_ctx, ptr %15, i32 0, i32 0
  %17 = load ptr, ptr %16, align 8
  %18 = load i32, ptr %11, align 4
  %19 = sext i32 %18 to i64
  %20 = getelementptr inbounds %struct._ir_insn, ptr %17, i64 %19
  store ptr %20, ptr %12, align 8
  %21 = load i32, ptr %7, align 4
  %22 = load ptr, ptr %12, align 8
  %23 = getelementptr inbounds %struct._ir_insn, ptr %22, i32 0, i32 0
  %24 = getelementptr inbounds %struct.anon, ptr %23, i32 0, i32 0
  store i32 %21, ptr %24, align 8
  %25 = load i32, ptr %8, align 4
  %26 = load ptr, ptr %12, align 8
  %27 = getelementptr inbounds %struct._ir_insn, ptr %26, i32 0, i32 0
  %28 = getelementptr inbounds %struct.anon, ptr %27, i32 0, i32 1
  store i32 %25, ptr %28, align 4
  %29 = load i32, ptr %9, align 4
  %30 = load ptr, ptr %12, align 8
  %31 = getelementptr inbounds %struct._ir_insn, ptr %30, i32 0, i32 1
  %32 = getelementptr inbounds %struct.anon.6, ptr %31, i32 0, i32 0
  store i32 %29, ptr %32, align 8
  %33 = load i32, ptr %10, align 4
  %34 = load ptr, ptr %12, align 8
  %35 = getelementptr inbounds %struct._ir_insn, ptr %34, i32 0, i32 1
  %36 = getelementptr inbounds %struct.anon.6, ptr %35, i32 0, i32 1
  store i32 %33, ptr %36, align 4
  %37 = load i32, ptr %11, align 4
  ret i32 %37
}

; Function Attrs: nounwind uwtable
define hidden i32 @ir_emit2(ptr noundef %0, i32 noundef %1, i32 noundef %2, i32 noundef %3) #0 {
  %5 = alloca ptr, align 8
  %6 = alloca i32, align 4
  %7 = alloca i32, align 4
  %8 = alloca i32, align 4
  store ptr %0, ptr %5, align 8
  store i32 %1, ptr %6, align 4
  store i32 %2, ptr %7, align 4
  store i32 %3, ptr %8, align 4
  %9 = load ptr, ptr %5, align 8
  %10 = load i32, ptr %6, align 4
  %11 = load i32, ptr %7, align 4
  %12 = load i32, ptr %8, align 4
  %13 = call i32 @ir_emit(ptr noundef %9, i32 noundef %10, i32 noundef %11, i32 noundef %12, i32 noundef 0)
  ret i32 %13
}

; Function Attrs: nounwind uwtable
define hidden i32 @_ir_IF(ptr noundef %0, i32 noundef %1) #0 {
  %3 = alloca i1, align 1
  %4 = alloca ptr, align 8
  %5 = alloca i1, align 1
  %6 = alloca ptr, align 8
  %7 = alloca i32, align 4
  %8 = alloca ptr, align 8
  %9 = alloca i32, align 4
  %10 = alloca i32, align 4
  %11 = alloca ptr, align 8
  %12 = alloca i32, align 4
  %13 = alloca ptr, align 8
  store ptr %0, ptr %8, align 8
  store i32 %1, ptr %9, align 4
  %14 = load i32, ptr %9, align 4
  %15 = icmp slt i32 %14, 0
  br i1 %15, label %16, label %75

16:                                               ; preds = %2
  %17 = load ptr, ptr %8, align 8
  %18 = load i32, ptr %9, align 4
  store ptr %17, ptr %6, align 8
  store i32 %18, ptr %7, align 4
  %19 = load i32, ptr %7, align 4
  %20 = icmp eq i32 %19, -3
  br i1 %20, label %21, label %22

21:                                               ; preds = %16
  store i1 true, ptr %5, align 1
  br label %72

22:                                               ; preds = %16
  %23 = load i32, ptr %7, align 4
  %24 = icmp eq i32 %23, -2
  br i1 %24, label %25, label %26

25:                                               ; preds = %22
  store i1 false, ptr %5, align 1
  br label %72

26:                                               ; preds = %22
  %27 = load ptr, ptr %6, align 8
  %28 = load ptr, ptr %27, align 8
  %29 = load i32, ptr %7, align 4
  %30 = sext i32 %29 to i64
  %31 = getelementptr inbounds %struct._ir_insn, ptr %28, i64 %30
  store ptr %31, ptr %4, align 8
  %32 = load ptr, ptr %4, align 8
  %33 = getelementptr inbounds %struct.anon.2, ptr %32, i32 0, i32 1
  %34 = load i8, ptr %33, align 1
  %35 = zext i8 %34 to i32
  %36 = icmp eq i32 %35, 1
  br i1 %36, label %37, label %42

37:                                               ; preds = %26
  %38 = load ptr, ptr %4, align 8
  %39 = getelementptr inbounds %struct._ir_insn, ptr %38, i32 0, i32 1
  %40 = load i8, ptr %39, align 8
  %41 = trunc i8 %40 to i1
  store i1 %41, ptr %3, align 1
  br label %70

42:                                               ; preds = %26
  %43 = load ptr, ptr %4, align 8
  %44 = getelementptr inbounds %struct.anon.2, ptr %43, i32 0, i32 1
  %45 = load i8, ptr %44, align 1
  %46 = zext i8 %45 to i32
  %47 = icmp slt i32 %46, 12
  br i1 %47, label %48, label %53

48:                                               ; preds = %42
  %49 = load ptr, ptr %4, align 8
  %50 = getelementptr inbounds %struct._ir_insn, ptr %49, i32 0, i32 1
  %51 = load i64, ptr %50, align 8
  %52 = icmp ne i64 %51, 0
  store i1 %52, ptr %3, align 1
  br label %70

53:                                               ; preds = %42
  %54 = load ptr, ptr %4, align 8
  %55 = getelementptr inbounds %struct.anon.2, ptr %54, i32 0, i32 1
  %56 = load i8, ptr %55, align 1
  %57 = zext i8 %56 to i32
  %58 = icmp eq i32 %57, 12
  br i1 %58, label %59, label %64

59:                                               ; preds = %53
  %60 = load ptr, ptr %4, align 8
  %61 = getelementptr inbounds %struct._ir_insn, ptr %60, i32 0, i32 1
  %62 = load double, ptr %61, align 8
  %63 = fcmp une double %62, 0.000000e+00
  store i1 %63, ptr %3, align 1
  br label %70

64:                                               ; preds = %53
  %65 = load ptr, ptr %4, align 8
  %66 = getelementptr inbounds %struct._ir_insn, ptr %65, i32 0, i32 1
  %67 = load float, ptr %66, align 8
  %68 = fpext float %67 to double
  %69 = fcmp une double %68, 0.000000e+00
  store i1 %69, ptr %3, align 1
  br label %70

70:                                               ; preds = %64, %59, %48, %37
  %71 = load i1, ptr %3, align 1
  store i1 %71, ptr %5, align 1
  br label %72

72:                                               ; preds = %70, %25, %21
  %73 = load i1, ptr %5, align 1
  %74 = select i1 %73, i32 -3, i32 -2
  store i32 %74, ptr %9, align 4
  br label %202

75:                                               ; preds = %2
  store ptr null, ptr %11, align 8
  %76 = load ptr, ptr %8, align 8
  %77 = getelementptr inbounds %struct._ir_ctx, ptr %76, i32 0, i32 40
  %78 = load i32, ptr %77, align 8
  store i32 %78, ptr %12, align 4
  br label %79

79:                                               ; preds = %195, %75
  %80 = load i32, ptr %12, align 4
  %81 = load i32, ptr %9, align 4
  %82 = icmp sgt i32 %80, %81
  br i1 %82, label %83, label %201

83:                                               ; preds = %79
  %84 = load ptr, ptr %8, align 8
  %85 = getelementptr inbounds %struct._ir_ctx, ptr %84, i32 0, i32 0
  %86 = load ptr, ptr %85, align 8
  %87 = load i32, ptr %12, align 4
  %88 = sext i32 %87 to i64
  %89 = getelementptr inbounds %struct._ir_insn, ptr %86, i64 %88
  store ptr %89, ptr %13, align 8
  %90 = load ptr, ptr %13, align 8
  %91 = getelementptr inbounds %struct._ir_insn, ptr %90, i32 0, i32 0
  %92 = getelementptr inbounds %struct.anon, ptr %91, i32 0, i32 0
  %93 = getelementptr inbounds %struct.anon.0, ptr %92, i32 0, i32 0
  %94 = getelementptr inbounds %struct.anon.2, ptr %93, i32 0, i32 0
  %95 = load i8, ptr %94, align 8
  %96 = zext i8 %95 to i32
  %97 = icmp eq i32 %96, 87
  br i1 %97, label %98, label %107

98:                                               ; preds = %83
  %99 = load ptr, ptr %13, align 8
  %100 = getelementptr inbounds %struct._ir_insn, ptr %99, i32 0, i32 1
  %101 = getelementptr inbounds %struct.anon.6, ptr %100, i32 0, i32 0
  %102 = load i32, ptr %101, align 8
  %103 = load i32, ptr %9, align 4
  %104 = icmp eq i32 %102, %103
  br i1 %104, label %105, label %106

105:                                              ; preds = %98
  store i32 -2, ptr %9, align 4
  br label %201

106:                                              ; preds = %98
  br label %195

107:                                              ; preds = %83
  %108 = load ptr, ptr %13, align 8
  %109 = getelementptr inbounds %struct._ir_insn, ptr %108, i32 0, i32 0
  %110 = getelementptr inbounds %struct.anon, ptr %109, i32 0, i32 0
  %111 = getelementptr inbounds %struct.anon.0, ptr %110, i32 0, i32 0
  %112 = getelementptr inbounds %struct.anon.2, ptr %111, i32 0, i32 0
  %113 = load i8, ptr %112, align 8
  %114 = zext i8 %113 to i32
  %115 = icmp eq i32 %114, 86
  br i1 %115, label %116, label %125

116:                                              ; preds = %107
  %117 = load ptr, ptr %13, align 8
  %118 = getelementptr inbounds %struct._ir_insn, ptr %117, i32 0, i32 1
  %119 = getelementptr inbounds %struct.anon.6, ptr %118, i32 0, i32 0
  %120 = load i32, ptr %119, align 8
  %121 = load i32, ptr %9, align 4
  %122 = icmp eq i32 %120, %121
  br i1 %122, label %123, label %124

123:                                              ; preds = %116
  store i32 -3, ptr %9, align 4
  br label %201

124:                                              ; preds = %116
  br label %194

125:                                              ; preds = %107
  %126 = load ptr, ptr %13, align 8
  %127 = getelementptr inbounds %struct._ir_insn, ptr %126, i32 0, i32 0
  %128 = getelementptr inbounds %struct.anon, ptr %127, i32 0, i32 0
  %129 = getelementptr inbounds %struct.anon.0, ptr %128, i32 0, i32 0
  %130 = getelementptr inbounds %struct.anon.2, ptr %129, i32 0, i32 0
  %131 = load i8, ptr %130, align 8
  %132 = zext i8 %131 to i32
  %133 = icmp eq i32 %132, 100
  br i1 %133, label %134, label %164

134:                                              ; preds = %125
  %135 = load ptr, ptr %13, align 8
  %136 = getelementptr inbounds %struct._ir_insn, ptr %135, i32 0, i32 1
  %137 = getelementptr inbounds %struct.anon.6, ptr %136, i32 0, i32 0
  %138 = load i32, ptr %137, align 8
  %139 = load i32, ptr %9, align 4
  %140 = icmp eq i32 %138, %139
  br i1 %140, label %141, label %163

141:                                              ; preds = %134
  %142 = load ptr, ptr %11, align 8
  %143 = getelementptr inbounds %struct._ir_insn, ptr %142, i32 0, i32 0
  %144 = getelementptr inbounds %struct.anon, ptr %143, i32 0, i32 0
  %145 = getelementptr inbounds %struct.anon.0, ptr %144, i32 0, i32 0
  %146 = getelementptr inbounds %struct.anon.2, ptr %145, i32 0, i32 0
  %147 = load i8, ptr %146, align 8
  %148 = zext i8 %147 to i32
  %149 = icmp eq i32 %148, 92
  br i1 %149, label %150, label %151

150:                                              ; preds = %141
  store i32 -3, ptr %9, align 4
  br label %201

151:                                              ; preds = %141
  %152 = load ptr, ptr %11, align 8
  %153 = getelementptr inbounds %struct._ir_insn, ptr %152, i32 0, i32 0
  %154 = getelementptr inbounds %struct.anon, ptr %153, i32 0, i32 0
  %155 = getelementptr inbounds %struct.anon.0, ptr %154, i32 0, i32 0
  %156 = getelementptr inbounds %struct.anon.2, ptr %155, i32 0, i32 0
  %157 = load i8, ptr %156, align 8
  %158 = zext i8 %157 to i32
  %159 = icmp eq i32 %158, 93
  br i1 %159, label %160, label %161

160:                                              ; preds = %151
  store i32 -2, ptr %9, align 4
  br label %201

161:                                              ; preds = %151
  br label %162

162:                                              ; preds = %161
  br label %163

163:                                              ; preds = %162, %134
  br label %193

164:                                              ; preds = %125
  %165 = load ptr, ptr %13, align 8
  %166 = getelementptr inbounds %struct._ir_insn, ptr %165, i32 0, i32 0
  %167 = getelementptr inbounds %struct.anon, ptr %166, i32 0, i32 0
  %168 = getelementptr inbounds %struct.anon.0, ptr %167, i32 0, i32 0
  %169 = getelementptr inbounds %struct.anon.2, ptr %168, i32 0, i32 0
  %170 = load i8, ptr %169, align 8
  %171 = zext i8 %170 to i32
  %172 = icmp eq i32 %171, 89
  br i1 %172, label %191, label %173

173:                                              ; preds = %164
  %174 = load ptr, ptr %13, align 8
  %175 = getelementptr inbounds %struct._ir_insn, ptr %174, i32 0, i32 0
  %176 = getelementptr inbounds %struct.anon, ptr %175, i32 0, i32 0
  %177 = getelementptr inbounds %struct.anon.0, ptr %176, i32 0, i32 0
  %178 = getelementptr inbounds %struct.anon.2, ptr %177, i32 0, i32 0
  %179 = load i8, ptr %178, align 8
  %180 = zext i8 %179 to i32
  %181 = icmp eq i32 %180, 96
  br i1 %181, label %191, label %182

182:                                              ; preds = %173
  %183 = load ptr, ptr %13, align 8
  %184 = getelementptr inbounds %struct._ir_insn, ptr %183, i32 0, i32 0
  %185 = getelementptr inbounds %struct.anon, ptr %184, i32 0, i32 0
  %186 = getelementptr inbounds %struct.anon.0, ptr %185, i32 0, i32 0
  %187 = getelementptr inbounds %struct.anon.2, ptr %186, i32 0, i32 0
  %188 = load i8, ptr %187, align 8
  %189 = zext i8 %188 to i32
  %190 = icmp eq i32 %189, 97
  br i1 %190, label %191, label %192

191:                                              ; preds = %182, %173, %164
  br label %201

192:                                              ; preds = %182
  br label %193

193:                                              ; preds = %192, %163
  br label %194

194:                                              ; preds = %193, %124
  br label %195

195:                                              ; preds = %194, %106
  %196 = load ptr, ptr %13, align 8
  store ptr %196, ptr %11, align 8
  %197 = load ptr, ptr %13, align 8
  %198 = getelementptr inbounds %struct._ir_insn, ptr %197, i32 0, i32 0
  %199 = getelementptr inbounds %struct.anon, ptr %198, i32 0, i32 1
  %200 = load i32, ptr %199, align 4
  store i32 %200, ptr %12, align 4
  br label %79

201:                                              ; preds = %191, %160, %150, %123, %105, %79
  br label %202

202:                                              ; preds = %201, %72
  %203 = load ptr, ptr %8, align 8
  %204 = load ptr, ptr %8, align 8
  %205 = getelementptr inbounds %struct._ir_ctx, ptr %204, i32 0, i32 40
  %206 = load i32, ptr %205, align 8
  %207 = load i32, ptr %9, align 4
  %208 = call i32 @ir_emit2(ptr noundef %203, i32 noundef 100, i32 noundef %206, i32 noundef %207)
  store i32 %208, ptr %10, align 4
  %209 = load ptr, ptr %8, align 8
  %210 = getelementptr inbounds %struct._ir_ctx, ptr %209, i32 0, i32 40
  store i32 0, ptr %210, align 8
  %211 = load i32, ptr %10, align 4
  ret i32 %211
}