; Function Attrs: nounwind uwtable
define hidden i32 @_ir_IF(ptr nocapture noundef %0, i32 noundef %1) local_unnamed_addr #0 {
  %3 = icmp slt i32 %1, 0
  br i1 %3, label %4, label %35

4:                                                ; preds = %2
  switch i32 %1, label %6 [
    i32 -3, label %.loopexit
    i32 -2, label %5
  ]

5:                                                ; preds = %4
  br label %.loopexit

6:                                                ; preds = %4
  %7 = load ptr, ptr %0, align 8
  %8 = sext i32 %1 to i64
  %9 = getelementptr inbounds %struct._ir_insn, ptr %7, i64 %8
  %10 = getelementptr inbounds i8, ptr %9, i64 1
  %11 = load i8, ptr %10, align 1
  %12 = icmp eq i8 %11, 1
  br i1 %12, label %13, label %18

13:                                               ; preds = %6
  %14 = getelementptr inbounds i8, ptr %9, i64 8
  %15 = load i8, ptr %14, align 8
  %16 = and i8 %15, 1
  %17 = icmp ne i8 %16, 0
  br label %33

18:                                               ; preds = %6
  %19 = icmp ult i8 %11, 12
  br i1 %19, label %20, label %24

20:                                               ; preds = %18
  %21 = getelementptr inbounds i8, ptr %9, i64 8
  %22 = load i64, ptr %21, align 8
  %23 = icmp ne i64 %22, 0
  br label %33

24:                                               ; preds = %18
  %25 = icmp eq i8 %11, 12
  %26 = getelementptr inbounds i8, ptr %9, i64 8
  br i1 %25, label %27, label %30

27:                                               ; preds = %24
  %28 = load double, ptr %26, align 8
  %29 = fcmp une double %28, 0.000000e+00
  br label %33

30:                                               ; preds = %24
  %31 = load float, ptr %26, align 8
  %32 = fcmp une float %31, 0.000000e+00
  br label %33

33:                                               ; preds = %30, %27, %20, %13
  %.0 = phi i1 [ %17, %13 ], [ %23, %20 ], [ %29, %27 ], [ %32, %30 ]
  %34 = select i1 %.0, i32 -3, i32 -2
  br label %.loopexit

35:                                               ; preds = %2
  %36 = getelementptr inbounds i8, ptr %0, i64 248
  %.04149 = load i32, ptr %36, align 4
  %37 = icmp sgt i32 %.04149, %1
  br i1 %37, label %.lr.ph, label %.loopexit

.lr.ph:                                           ; preds = %35
  %38 = load ptr, ptr %0, align 8
  br label %39

39:                                               ; preds = %.lr.ph, %57
  %.04151 = phi i32 [ %.04149, %.lr.ph ], [ %.041, %57 ]
  %.04250 = phi ptr [ null, %.lr.ph ], [ %41, %57 ]
  %40 = zext nneg i32 %.04151 to i64
  %41 = getelementptr inbounds %struct._ir_insn, ptr %38, i64 %40
  %42 = load i8, ptr %41, align 8
  switch i8 %42, label %57 [
    i8 87, label %43
    i8 86, label %47
    i8 100, label %51
    i8 89, label %.loopexit
    i8 96, label %.loopexit
    i8 97, label %.loopexit
  ]

43:                                               ; preds = %39
  %44 = getelementptr inbounds i8, ptr %41, i64 8
  %45 = load i32, ptr %44, align 8
  %46 = icmp eq i32 %45, %1
  br i1 %46, label %.loopexit, label %57

47:                                               ; preds = %39
  %48 = getelementptr inbounds i8, ptr %41, i64 8
  %49 = load i32, ptr %48, align 8
  %50 = icmp eq i32 %49, %1
  br i1 %50, label %.loopexit, label %57

51:                                               ; preds = %39
  %52 = getelementptr inbounds i8, ptr %41, i64 8
  %53 = load i32, ptr %52, align 8
  %54 = icmp eq i32 %53, %1
  br i1 %54, label %55, label %57

55:                                               ; preds = %51
  %56 = load i8, ptr %.04250, align 8
  switch i8 %56, label %57 [
    i8 92, label %.loopexit.loopexit
    i8 93, label %.loopexit
  ]

57:                                               ; preds = %39, %55, %47, %51, %43
  %58 = getelementptr inbounds i8, ptr %41, i64 4
  %.041 = load i32, ptr %58, align 4
  %59 = icmp sgt i32 %.041, %1
  br i1 %59, label %39, label %.loopexit

.loopexit.loopexit:                               ; preds = %55
  br label %.loopexit

.loopexit:                                        ; preds = %57, %43, %47, %39, %39, %39, %55, %.loopexit.loopexit, %35, %5, %33, %4
  %.044 = phi i32 [ -2, %5 ], [ %34, %33 ], [ %1, %4 ], [ %1, %35 ], [ -2, %55 ], [ %1, %57 ], [ -2, %43 ], [ -3, %47 ], [ %1, %39 ], [ %1, %39 ], [ %1, %39 ], [ -3, %.loopexit.loopexit ]
  %60 = getelementptr inbounds i8, ptr %0, i64 248
  %61 = load i32, ptr %60, align 8
  %62 = getelementptr inbounds i8, ptr %0, i64 8
  %63 = load i32, ptr %62, align 8
  %64 = getelementptr inbounds i8, ptr %0, i64 12
  %65 = load i32, ptr %64, align 4
  %.not.i.i.i = icmp slt i32 %63, %65
  %.pre.i.i = load ptr, ptr %0, align 8
  br i1 %.not.i.i.i, label %ir_emit2.exit, label %66

66:                                               ; preds = %.loopexit
  %67 = getelementptr inbounds i8, ptr %0, i64 20
  %68 = load i32, ptr %67, align 4
  %69 = icmp slt i32 %65, 4096
  %70 = shl nsw i32 %65, 1
  %71 = icmp ult i32 %65, 8192
  %72 = add nuw nsw i32 %65, 4096
  %spec.select.i.i.i.i = select i1 %71, i32 8192, i32 %72
  %.sink.i.i.i.i = select i1 %69, i32 %70, i32 %spec.select.i.i.i.i
  store i32 %.sink.i.i.i.i, ptr %64, align 4
  %73 = sext i32 %68 to i64
  %74 = sub nsw i64 0, %73
  %75 = getelementptr inbounds %struct._ir_insn, ptr %.pre.i.i, i64 %74
  %76 = add nsw i32 %68, %.sink.i.i.i.i
  %77 = sext i32 %76 to i64
  %78 = shl nsw i64 %77, 4
  %79 = tail call ptr @_erealloc(ptr noundef %75, i64 noundef %78) #24
  %80 = load i32, ptr %67, align 4
  %81 = sext i32 %80 to i64
  %82 = getelementptr inbounds %struct._ir_insn, ptr %79, i64 %81
  store ptr %82, ptr %0, align 8
  br label %ir_emit2.exit

ir_emit2.exit:                                    ; preds = %.loopexit, %66
  %83 = phi ptr [ %.pre.i.i, %.loopexit ], [ %82, %66 ]
  %84 = add nsw i32 %63, 1
  store i32 %84, ptr %62, align 8
  %85 = sext i32 %63 to i64
  %86 = getelementptr inbounds %struct._ir_insn, ptr %83, i64 %85
  store i32 100, ptr %86, align 8
  %87 = getelementptr inbounds i8, ptr %86, i64 4
  store i32 %61, ptr %87, align 4
  %88 = getelementptr inbounds i8, ptr %86, i64 8
  store i32 %.044, ptr %88, align 8
  %89 = getelementptr inbounds i8, ptr %86, i64 12
  store i32 0, ptr %89, align 4
  store i32 0, ptr %60, align 8
  ret i32 %63
}